target datalayout = "e-m:e-p270:32:32-p271:32:32-p272:64:64-i64:64-i128:128-f80:128-n8:16:32:64-S128"
target triple = "x86_64-pc-linux-gnu"

%"class.llvm::SmallVectorBase" = type { ptr, i32, i32 }
%"class.llvm::BitVector" = type <{ %"class.llvm::SmallVector.47", i32, [4 x i8] }>
%"class.llvm::SmallVector.47" = type { %"class.llvm::SmallVectorImpl.48", %"struct.llvm::SmallVectorStorage.51" }
%"class.llvm::SmallVectorImpl.48" = type { %"class.llvm::SmallVectorTemplateBase.49" }
%"class.llvm::SmallVectorTemplateBase.49" = type { %"class.llvm::SmallVectorTemplateCommon.50" }
%"class.llvm::SmallVectorTemplateCommon.50" = type { %"class.llvm::SmallVectorBase" }
%"struct.llvm::SmallVectorStorage.51" = type { [48 x i8] }
%"class.llvm::ScheduleDAGInstrs" = type { %"class.llvm::ScheduleDAG", ptr, ptr, %"class.llvm::TargetSchedModel", i8, i8, i8, ptr, %"class.llvm::MachineInstrBundleIterator", %"class.llvm::MachineInstrBundleIterator", i32, [4 x i8], %"class.llvm::DenseMap.98", %"class.llvm::SparseMultiSet", %"class.llvm::SparseMultiSet", %"class.llvm::SparseMultiSet.106", %"class.llvm::SparseMultiSet.112", ptr, ptr, i32, ptr, %"class.llvm::ScheduleDAGTopologicalSort", %"class.std::vector.128", ptr, %"class.llvm::LiveRegUnits" }
%"class.llvm::ScheduleDAG" = type { ptr, ptr, ptr, ptr, ptr, ptr, %"class.std::vector.83", %"class.llvm::SUnit", %"class.llvm::SUnit" }
%"class.std::vector.83" = type { %"struct.std::_Vector_base.84" }
%"struct.std::_Vector_base.84" = type { %"struct.std::_Vector_base<llvm::SUnit, std::allocator<llvm::SUnit>>::_Vector_impl" }
%"struct.std::_Vector_base<llvm::SUnit, std::allocator<llvm::SUnit>>::_Vector_impl" = type { %"struct.std::_Vector_base<llvm::SUnit, std::allocator<llvm::SUnit>>::_Vector_impl_data" }
%"struct.std::_Vector_base<llvm::SUnit, std::allocator<llvm::SUnit>>::_Vector_impl_data" = type { ptr, ptr, ptr }
%"class.llvm::SUnit" = type <{ %union.anon, ptr, ptr, ptr, ptr, %"class.llvm::SmallVector.88", %"class.llvm::SmallVector.88", i32, i32, i32, i32, i32, i32, i32, i32, i32, i32, i32, i32, i16, i16, i16, i8, i8 }>
%union.anon = type { ptr }
%"class.llvm::SmallVector.88" = type { %"class.llvm::SmallVectorImpl.89", %"struct.llvm::SmallVectorStorage.92" }
%"class.llvm::SmallVectorImpl.89" = type { %"class.llvm::SmallVectorTemplateBase.90" }
%"class.llvm::SmallVectorTemplateBase.90" = type { %"class.llvm::SmallVectorTemplateCommon.91" }
%"class.llvm::SmallVectorTemplateCommon.91" = type { %"class.llvm::SmallVectorBase" }
%"struct.llvm::SmallVectorStorage.92" = type { [64 x i8] }
%"class.llvm::TargetSchedModel" = type { %"struct.llvm::MCSchedModel", %"class.llvm::InstrItineraryData", ptr, ptr, %"class.llvm::SmallVector.93", i32, i32 }
%"struct.llvm::MCSchedModel" = type { i32, i32, i32, i32, i32, i32, i8, i8, i8, i32, ptr, ptr, i32, i32, ptr, ptr }
%"class.llvm::InstrItineraryData" = type { %"struct.llvm::MCSchedModel", ptr, ptr, ptr, ptr }
%"class.llvm::SmallVector.93" = type { %"class.llvm::SmallVectorImpl.94", %"struct.llvm::SmallVectorStorage.97" }
%"class.llvm::SmallVectorImpl.94" = type { %"class.llvm::SmallVectorTemplateBase.95" }
%"class.llvm::SmallVectorTemplateBase.95" = type { %"class.llvm::SmallVectorTemplateCommon.96" }
%"class.llvm::SmallVectorTemplateCommon.96" = type { %"class.llvm::SmallVectorBase" }
%"struct.llvm::SmallVectorStorage.97" = type { [64 x i8] }
%"class.llvm::DenseMap.98" = type <{ ptr, i32, i32, i32, [4 x i8] }>
%"class.llvm::SparseMultiSet" = type { %"class.llvm::SmallVector.101", ptr, i32, [4 x i8], i32, i32 }
%"class.llvm::SmallVector.101" = type { %"class.llvm::SmallVectorImpl.102", %"struct.llvm::SmallVectorStorage.105" }
%"class.llvm::SmallVectorImpl.102" = type { %"class.llvm::SmallVectorTemplateBase.103" }
%"class.llvm::SmallVectorTemplateBase.103" = type { %"class.llvm::SmallVectorTemplateCommon.104" }
%"class.llvm::SmallVectorTemplateCommon.104" = type { %"class.llvm::SmallVectorBase" }
%"struct.llvm::SmallVectorStorage.105" = type { [192 x i8] }
%"class.llvm::SparseMultiSet.106" = type { %"class.llvm::SmallVector.107", ptr, i32, [4 x i8], i32, i32 }
%"class.llvm::SmallVector.107" = type { %"class.llvm::SmallVectorImpl.108", %"struct.llvm::SmallVectorStorage.111" }
%"class.llvm::SmallVectorImpl.108" = type { %"class.llvm::SmallVectorTemplateBase.109" }
%"class.llvm::SmallVectorTemplateBase.109" = type { %"class.llvm::SmallVectorTemplateCommon.110" }
%"class.llvm::SmallVectorTemplateCommon.110" = type { %"class.llvm::SmallVectorBase" }
%"struct.llvm::SmallVectorStorage.111" = type { [256 x i8] }
%"class.llvm::SparseMultiSet.112" = type { %"class.llvm::SmallVector.113", ptr, i32, [4 x i8], i32, i32 }
%"class.llvm::SmallVector.113" = type { %"class.llvm::SmallVectorImpl.114", %"struct.llvm::SmallVectorStorage.117" }
%"class.llvm::SmallVectorImpl.114" = type { %"class.llvm::SmallVectorTemplateBase.115" }
%"class.llvm::SmallVectorTemplateBase.115" = type { %"class.llvm::SmallVectorTemplateCommon.116" }
%"class.llvm::SmallVectorTemplateCommon.116" = type { %"class.llvm::SmallVectorBase" }
%"struct.llvm::SmallVectorStorage.117" = type { [320 x i8] }
%"class.llvm::ScheduleDAGTopologicalSort" = type { ptr, ptr, i8, %"class.llvm::SmallVector.118", %"class.std::vector.123", %"class.std::vector.123", %"class.llvm::BitVector" }
%"class.llvm::SmallVector.118" = type { %"class.llvm::SmallVectorImpl.119", %"struct.llvm::SmallVectorStorage.122" }
%"class.llvm::SmallVectorImpl.119" = type { %"class.llvm::SmallVectorTemplateBase.120" }
%"class.llvm::SmallVectorTemplateBase.120" = type { %"class.llvm::SmallVectorTemplateCommon.121" }
%"class.llvm::SmallVectorTemplateCommon.121" = type { %"class.llvm::SmallVectorBase" }
%"struct.llvm::SmallVectorStorage.122" = type { [256 x i8] }
%"class.std::vector.123" = type { %"struct.std::_Vector_base.124" }
%"struct.std::_Vector_base.124" = type { %"struct.std::_Vector_base<int, std::allocator<int>>::_Vector_impl" }
%"struct.std::_Vector_base<int, std::allocator<int>>::_Vector_impl" = type { %"struct.std::_Vector_base<int, std::allocator<int>>::_Vector_impl_data" }
%"struct.std::_Vector_base<int, std::allocator<int>>::_Vector_impl_data" = type { ptr, ptr, ptr }
%"class.std::vector.128" = type { %"struct.std::_Vector_base.129" }
%"struct.std::_Vector_base.129" = type { %"struct.std::_Vector_base<std::pair<llvm::MachineInstr *, llvm::MachineInstr *>, std::allocator<std::pair<llvm::MachineInstr *, llvm::MachineInstr *>>>::_Vector_impl" }
%"struct.std::_Vector_base<std::pair<llvm::MachineInstr *, llvm::MachineInstr *>, std::allocator<std::pair<llvm::MachineInstr *, llvm::MachineInstr *>>>::_Vector_impl" = type { %"struct.std::_Vector_base<std::pair<llvm::MachineInstr *, llvm::MachineInstr *>, std::allocator<std::pair<llvm::MachineInstr *, llvm::MachineInstr *>>>::_Vector_impl_data" }
%"struct.std::_Vector_base<std::pair<llvm::MachineInstr *, llvm::MachineInstr *>, std::allocator<std::pair<llvm::MachineInstr *, llvm::MachineInstr *>>>::_Vector_impl_data" = type { ptr, ptr, ptr }
%"class.llvm::LiveRegUnits" = type { ptr, %"class.llvm::BitVector" }
%"class.llvm::MachineInstrBundleIterator" = type { %"class.llvm::ilist_iterator" }
%"class.llvm::ilist_iterator" = type { ptr }
%"class.std::vector.243" = type { %"struct.std::_Vector_base.244" }
%"struct.std::_Vector_base.244" = type { %"struct.std::_Vector_base<unsigned int, std::allocator<unsigned int>>::_Vector_impl" }
%"struct.std::_Vector_base<unsigned int, std::allocator<unsigned int>>::_Vector_impl" = type { %"struct.std::_Vector_base<unsigned int, std::allocator<unsigned int>>::_Vector_impl_data" }
%"struct.std::_Vector_base<unsigned int, std::allocator<unsigned int>>::_Vector_impl_data" = type { ptr, ptr, ptr }
%"class.llvm::PressureChange" = type { i16, i16 }
%"class.std::__cxx11::basic_string" = type { %"struct.std::__cxx11::basic_string<char>::_Alloc_hider", i64, %union.anon.318 }
%"struct.std::__cxx11::basic_string<char>::_Alloc_hider" = type { ptr }
%union.anon.318 = type { i64, [8 x i8] }
%"class.llvm::SchedBoundary" = type { ptr, ptr, ptr, %"class.llvm::ReadyQueue", %"class.llvm::ReadyQueue", ptr, i8, i32, i32, i32, i32, i32, i32, %"class.llvm::SmallVector.93", i32, i32, i8, %"class.std::map", %"class.std::vector.243", %"class.llvm::SmallVector.93", %"class.llvm::SmallVector.490" }
%"class.llvm::ReadyQueue" = type { i32, %"class.std::__cxx11::basic_string", %"class.std::vector.482" }
%"class.std::vector.482" = type { %"struct.std::_Vector_base.483" }
%"struct.std::_Vector_base.483" = type { %"struct.std::_Vector_base<llvm::SUnit *, std::allocator<llvm::SUnit *>>::_Vector_impl" }
%"struct.std::_Vector_base<llvm::SUnit *, std::allocator<llvm::SUnit *>>::_Vector_impl" = type { %"struct.std::_Vector_base<llvm::SUnit *, std::allocator<llvm::SUnit *>>::_Vector_impl_data" }
%"struct.std::_Vector_base<llvm::SUnit *, std::allocator<llvm::SUnit *>>::_Vector_impl_data" = type { ptr, ptr, ptr }
%"class.std::map" = type { %"class.std::_Rb_tree" }
%"class.std::_Rb_tree" = type { %"struct.std::_Rb_tree<unsigned int, std::pair<const unsigned int, llvm::ResourceSegments>, std::_Select1st<std::pair<const unsigned int, llvm::ResourceSegments>>, std::less<unsigned int>>::_Rb_tree_impl" }
%"struct.std::_Rb_tree<unsigned int, std::pair<const unsigned int, llvm::ResourceSegments>, std::_Select1st<std::pair<const unsigned int, llvm::ResourceSegments>>, std::less<unsigned int>>::_Rb_tree_impl" = type { [8 x i8], %"struct.std::_Rb_tree_header" }
%"struct.std::_Rb_tree_header" = type { %"struct.std::_Rb_tree_node_base", i64 }
%"struct.std::_Rb_tree_node_base" = type { i32, ptr, ptr, ptr }
%"class.llvm::SmallVector.490" = type { %"class.llvm::SmallVectorImpl.491", %"struct.llvm::SmallVectorStorage.494" }
%"class.llvm::SmallVectorImpl.491" = type { %"class.llvm::SmallVectorTemplateBase.492" }
%"class.llvm::SmallVectorTemplateBase.492" = type { %"class.llvm::SmallVectorTemplateCommon.493" }
%"class.llvm::SmallVectorTemplateCommon.493" = type { %"class.llvm::SmallVectorBase" }
%"struct.llvm::SmallVectorStorage.494" = type { [256 x i8] }
%"struct.llvm::SchedRemainder" = type { i32, i32, i32, i8, %"class.llvm::SmallVector.93" }
%"struct.llvm::GenericSchedulerBase::SchedCandidate" = type { %"struct.llvm::GenericSchedulerBase::CandPolicy", ptr, i8, i8, %"struct.llvm::RegPressureDelta", %"struct.llvm::GenericSchedulerBase::SchedResourceDelta" }
%"struct.llvm::GenericSchedulerBase::CandPolicy" = type { i8, i32, i32 }
%"struct.llvm::RegPressureDelta" = type { %"class.llvm::PressureChange", %"class.llvm::PressureChange", %"class.llvm::PressureChange" }
%"struct.llvm::GenericSchedulerBase::SchedResourceDelta" = type { i32, i32 }
%"class.llvm::GenericSchedulerBase" = type { %"class.llvm::MachineSchedStrategy", ptr, ptr, ptr, %"struct.llvm::SchedRemainder" }
%"class.llvm::MachineSchedStrategy" = type { ptr }
%"struct.llvm::MachineSchedPolicy" = type { i8, i8, i8, i8, i8, i8 }
%"class.llvm::PostGenericScheduler" = type { %"class.llvm::GenericSchedulerBase", ptr, %"class.llvm::SchedBoundary", %"class.llvm::SchedBoundary", %"struct.llvm::MachineSchedPolicy", %"struct.llvm::GenericSchedulerBase::SchedCandidate", %"struct.llvm::GenericSchedulerBase::SchedCandidate" }

; Function Attrs: mustprogress nounwind uwtable
define linkonce_odr hidden noundef ptr @_ZNK4llvm16TargetSchedModel19getInstrItinerariesEv(ptr noundef nonnull align 8 dereferenceable(280) %0) #1 comdat align 2 {
  %2 = alloca ptr, align 8
  %3 = alloca ptr, align 8
  store ptr %0, ptr %3, align 8
  %4 = load ptr, ptr %3, align 8
  %5 = call noundef zeroext i1 @_ZNK4llvm16TargetSchedModel19hasInstrItinerariesEv(ptr noundef nonnull align 8 dereferenceable(280) %4)
  br i1 %5, label %6, label %8

6:                                                ; preds = %1
  %7 = getelementptr inbounds nuw %"class.llvm::TargetSchedModel", ptr %4, i32 0, i32 1
  store ptr %7, ptr %2, align 8
  br label %9

8:                                                ; preds = %1
  store ptr null, ptr %2, align 8
  br label %9

9:                                                ; preds = %8, %6
  %10 = load ptr, ptr %2, align 8
  ret ptr %10
}

; Function Attrs: mustprogress nounwind uwtable
define linkonce_odr hidden noundef ptr @_ZNK4llvm17ScheduleDAGInstrs13getSchedModelEv(ptr noundef nonnull align 8 dereferenceable(2624) %0) #1 comdat align 2 {
  %2 = alloca ptr, align 8
  store ptr %0, ptr %2, align 8
  %3 = load ptr, ptr %2, align 8
  %4 = getelementptr inbounds nuw %"class.llvm::ScheduleDAGInstrs", ptr %3, i32 0, i32 3
  ret ptr %4
}

; Function Attrs: mustprogress nounwind uwtable
define dso_local void @_ZN4llvm20PostGenericScheduler10initializeEPNS_13ScheduleDAGMIE(ptr noundef nonnull align 8 dereferenceable(1664) %0, ptr noundef %1) unnamed_addr #1 align 2 {
  %3 = alloca ptr, align 8
  %4 = alloca ptr, align 8
  %5 = alloca ptr, align 8
  store ptr %0, ptr %3, align 8
  store ptr %1, ptr %4, align 8
  %6 = load ptr, ptr %3, align 8
  %7 = load ptr, ptr %4, align 8
  %8 = getelementptr inbounds nuw %"class.llvm::PostGenericScheduler", ptr %6, i32 0, i32 1
  store ptr %7, ptr %8, align 8
  %9 = getelementptr inbounds nuw %"class.llvm::PostGenericScheduler", ptr %6, i32 0, i32 1
  %10 = load ptr, ptr %9, align 8
  %11 = call noundef ptr @_ZNK4llvm17ScheduleDAGInstrs13getSchedModelEv(ptr noundef nonnull align 8 dereferenceable(2624) %10)
  %12 = getelementptr inbounds nuw %"class.llvm::GenericSchedulerBase", ptr %6, i32 0, i32 2
  store ptr %11, ptr %12, align 8
  %13 = getelementptr inbounds nuw %"class.llvm::PostGenericScheduler", ptr %6, i32 0, i32 1
  %14 = load ptr, ptr %13, align 8
  %15 = getelementptr inbounds nuw %"class.llvm::ScheduleDAG", ptr %14, i32 0, i32 3
  %16 = load ptr, ptr %15, align 8
  %17 = getelementptr inbounds nuw %"class.llvm::GenericSchedulerBase", ptr %6, i32 0, i32 3
  store ptr %16, ptr %17, align 8
  %18 = getelementptr inbounds nuw %"class.llvm::GenericSchedulerBase", ptr %6, i32 0, i32 4
  %19 = getelementptr inbounds nuw %"class.llvm::PostGenericScheduler", ptr %6, i32 0, i32 1
  %20 = load ptr, ptr %19, align 8
  %21 = getelementptr inbounds nuw %"class.llvm::GenericSchedulerBase", ptr %6, i32 0, i32 2
  %22 = load ptr, ptr %21, align 8
  call void @_ZN4llvm14SchedRemainder4initEPNS_13ScheduleDAGMIEPKNS_16TargetSchedModelE(ptr noundef nonnull align 8 dereferenceable(96) %18, ptr noundef %20, ptr noundef %22)
  %23 = getelementptr inbounds nuw %"class.llvm::PostGenericScheduler", ptr %6, i32 0, i32 2
  %24 = getelementptr inbounds nuw %"class.llvm::PostGenericScheduler", ptr %6, i32 0, i32 1
  %25 = load ptr, ptr %24, align 8
  %26 = getelementptr inbounds nuw %"class.llvm::GenericSchedulerBase", ptr %6, i32 0, i32 2
  %27 = load ptr, ptr %26, align 8
  %28 = getelementptr inbounds nuw %"class.llvm::GenericSchedulerBase", ptr %6, i32 0, i32 4
  call void @_ZN4llvm13SchedBoundary4initEPNS_13ScheduleDAGMIEPKNS_16TargetSchedModelEPNS_14SchedRemainderE(ptr noundef nonnull align 8 dereferenceable(712) %23, ptr noundef %25, ptr noundef %27, ptr noundef %28)
  %29 = getelementptr inbounds nuw %"class.llvm::PostGenericScheduler", ptr %6, i32 0, i32 3
  %30 = getelementptr inbounds nuw %"class.llvm::PostGenericScheduler", ptr %6, i32 0, i32 1
  %31 = load ptr, ptr %30, align 8
  %32 = getelementptr inbounds nuw %"class.llvm::GenericSchedulerBase", ptr %6, i32 0, i32 2
  %33 = load ptr, ptr %32, align 8
  %34 = getelementptr inbounds nuw %"class.llvm::GenericSchedulerBase", ptr %6, i32 0, i32 4
  call void @_ZN4llvm13SchedBoundary4initEPNS_13ScheduleDAGMIEPKNS_16TargetSchedModelEPNS_14SchedRemainderE(ptr noundef nonnull align 8 dereferenceable(712) %29, ptr noundef %31, ptr noundef %33, ptr noundef %34)
  %35 = getelementptr inbounds nuw %"class.llvm::GenericSchedulerBase", ptr %6, i32 0, i32 2
  %36 = load ptr, ptr %35, align 8
  %37 = call noundef ptr @_ZNK4llvm16TargetSchedModel19getInstrItinerariesEv(ptr noundef nonnull align 8 dereferenceable(280) %36)
  store ptr %37, ptr %5, align 8
  %38 = getelementptr inbounds nuw %"class.llvm::PostGenericScheduler", ptr %6, i32 0, i32 2
  %39 = getelementptr inbounds nuw %"class.llvm::SchedBoundary", ptr %38, i32 0, i32 5
  %40 = load ptr, ptr %39, align 8
  %41 = icmp ne ptr %40, null
  br i1 %41, label %56, label %42

42:                                               ; preds = %2
  %43 = getelementptr inbounds nuw %"class.llvm::PostGenericScheduler", ptr %6, i32 0, i32 1
  %44 = load ptr, ptr %43, align 8
  %45 = getelementptr inbounds nuw %"class.llvm::ScheduleDAG", ptr %44, i32 0, i32 2
  %46 = load ptr, ptr %45, align 8
  %47 = load ptr, ptr %5, align 8
  %48 = getelementptr inbounds nuw %"class.llvm::PostGenericScheduler", ptr %6, i32 0, i32 1
  %49 = load ptr, ptr %48, align 8
  %50 = load ptr, ptr %46, align 8
  %51 = getelementptr inbounds ptr, ptr %50, i64 118
  %52 = load ptr, ptr %51, align 8
  %53 = call noundef ptr %52(ptr noundef nonnull align 8 dereferenceable(80) %46, ptr noundef %47, ptr noundef %49)
  %54 = getelementptr inbounds nuw %"class.llvm::PostGenericScheduler", ptr %6, i32 0, i32 2
  %55 = getelementptr inbounds nuw %"class.llvm::SchedBoundary", ptr %54, i32 0, i32 5
  store ptr %53, ptr %55, align 8
  br label %56

56:                                               ; preds = %42, %2
  %57 = getelementptr inbounds nuw %"class.llvm::PostGenericScheduler", ptr %6, i32 0, i32 3
  %58 = getelementptr inbounds nuw %"class.llvm::SchedBoundary", ptr %57, i32 0, i32 5
  %59 = load ptr, ptr %58, align 8
  %60 = icmp ne ptr %59, null
  br i1 %60, label %75, label %61

61:                                               ; preds = %56
  %62 = getelementptr inbounds nuw %"class.llvm::PostGenericScheduler", ptr %6, i32 0, i32 1
  %63 = load ptr, ptr %62, align 8
  %64 = getelementptr inbounds nuw %"class.llvm::ScheduleDAG", ptr %63, i32 0, i32 2
  %65 = load ptr, ptr %64, align 8
  %66 = load ptr, ptr %5, align 8
  %67 = getelementptr inbounds nuw %"class.llvm::PostGenericScheduler", ptr %6, i32 0, i32 1
  %68 = load ptr, ptr %67, align 8
  %69 = load ptr, ptr %65, align 8
  %70 = getelementptr inbounds ptr, ptr %69, i64 118
  %71 = load ptr, ptr %70, align 8
  %72 = call noundef ptr %71(ptr noundef nonnull align 8 dereferenceable(80) %65, ptr noundef %66, ptr noundef %68)
  %73 = getelementptr inbounds nuw %"class.llvm::PostGenericScheduler", ptr %6, i32 0, i32 3
  %74 = getelementptr inbounds nuw %"class.llvm::SchedBoundary", ptr %73, i32 0, i32 5
  store ptr %72, ptr %74, align 8
  br label %75

75:                                               ; preds = %61, %56
  ret void
}