; Function Attrs: mustprogress nounwind uwtable
define dso_local void @_ZN4llvm20PostGenericScheduler10initializeEPNS_13ScheduleDAGMIE(ptr noundef nonnull align 8 dereferenceable(1664) initializes((16, 45), (128, 136)) %0, ptr noundef %1) unnamed_addr #0 align 2 {
  %3 = getelementptr inbounds nuw i8, ptr %0, i64 128
  store ptr %1, ptr %3, align 8
  %4 = getelementptr inbounds nuw i8, ptr %1, i64 600
  %5 = getelementptr inbounds nuw i8, ptr %0, i64 16
  store ptr %4, ptr %5, align 8
  %6 = getelementptr inbounds nuw i8, ptr %1, i64 24
  %7 = load ptr, ptr %6, align 8
  %8 = getelementptr inbounds nuw i8, ptr %0, i64 24
  store ptr %7, ptr %8, align 8
  %9 = getelementptr inbounds nuw i8, ptr %0, i64 32
  tail call void @_ZN4llvm14SchedRemainder4initEPNS_13ScheduleDAGMIEPKNS_16TargetSchedModelE(ptr noundef nonnull align 8 dereferenceable(96) %9, ptr noundef %1, ptr noundef nonnull %4)
  %10 = getelementptr inbounds nuw i8, ptr %0, i64 136
  %11 = load ptr, ptr %3, align 8
  %12 = load ptr, ptr %5, align 8
  tail call void @_ZN4llvm13SchedBoundary4initEPNS_13ScheduleDAGMIEPKNS_16TargetSchedModelEPNS_14SchedRemainderE(ptr noundef nonnull align 8 dereferenceable(712) %10, ptr noundef %11, ptr noundef %12, ptr noundef nonnull %9)
  %13 = getelementptr inbounds nuw i8, ptr %0, i64 848
  %14 = load ptr, ptr %3, align 8
  %15 = load ptr, ptr %5, align 8
  tail call void @_ZN4llvm13SchedBoundary4initEPNS_13ScheduleDAGMIEPKNS_16TargetSchedModelEPNS_14SchedRemainderE(ptr noundef nonnull align 8 dereferenceable(712) %13, ptr noundef %14, ptr noundef %15, ptr noundef nonnull %9)
  %16 = load ptr, ptr %5, align 8
  %17 = tail call noundef zeroext i1 @_ZNK4llvm16TargetSchedModel19hasInstrItinerariesEv(ptr noundef nonnull align 8 dereferenceable(280) %16) #28
  %18 = getelementptr inbounds nuw i8, ptr %16, i64 72
  %.0.i = select i1 %17, ptr %18, ptr null
  %19 = getelementptr inbounds nuw i8, ptr %0, i64 288
  %20 = load ptr, ptr %19, align 8
  %.not = icmp eq ptr %20, null
  br i1 %.not, label %21, label %29

21:                                               ; preds = %2
  %22 = load ptr, ptr %3, align 8
  %23 = getelementptr inbounds nuw i8, ptr %22, i64 16
  %24 = load ptr, ptr %23, align 8
  %25 = load ptr, ptr %24, align 8
  %26 = getelementptr inbounds nuw i8, ptr %25, i64 944
  %27 = load ptr, ptr %26, align 8
  %28 = tail call noundef ptr %27(ptr noundef nonnull align 8 dereferenceable(80) %24, ptr noundef %.0.i, ptr noundef %22) #28
  store ptr %28, ptr %19, align 8
  br label %29

29:                                               ; preds = %21, %2
  %30 = getelementptr inbounds nuw i8, ptr %0, i64 1000
  %31 = load ptr, ptr %30, align 8
  %.not4 = icmp eq ptr %31, null
  br i1 %.not4, label %32, label %40

32:                                               ; preds = %29
  %33 = load ptr, ptr %3, align 8
  %34 = getelementptr inbounds nuw i8, ptr %33, i64 16
  %35 = load ptr, ptr %34, align 8
  %36 = load ptr, ptr %35, align 8
  %37 = getelementptr inbounds nuw i8, ptr %36, i64 944
  %38 = load ptr, ptr %37, align 8
  %39 = tail call noundef ptr %38(ptr noundef nonnull align 8 dereferenceable(80) %35, ptr noundef %.0.i, ptr noundef %33) #28
  store ptr %39, ptr %30, align 8
  br label %40

40:                                               ; preds = %32, %29
  ret void
}